target datalayout = "e-m:e-p270:32:32-p271:32:32-p272:64:64-i64:64-i128:128-f80:128-n8:16:32:64-S128"
target triple = "x86_64-pc-linux-gnu"

%struct._object = type { %union.anon, ptr }
%union.anon = type { i64 }
%struct.pysqlite_Connection = type { %struct._object, ptr, ptr, i32, ptr, i32, i32, i32, i64, ptr, ptr, ptr, i32, ptr, ptr, ptr, ptr, ptr, ptr, ptr, ptr, ptr, ptr, ptr, ptr, ptr, ptr, ptr }
%struct.pysqlite_Blob = type { %struct._object, ptr, ptr, i32, ptr }
%struct.pysqlite_state = type { ptr, ptr, ptr, ptr, ptr, ptr, ptr, ptr, ptr, ptr, ptr, ptr, ptr, i32, i32, ptr, ptr, ptr, ptr, ptr, ptr, ptr, ptr, ptr, ptr, ptr, ptr, ptr, ptr }

@.str.6 = private unnamed_addr constant [5 x i8] c"read\00", align 1
@.str.11 = private unnamed_addr constant [33 x i8] c"Cannot operate on a closed blob.\00", align 1

; Function Attrs: nounwind uwtable
define internal i32 @check_blob(ptr noundef %0) #0 {
  %2 = alloca i32, align 4
  %3 = alloca ptr, align 8
  %4 = alloca ptr, align 8
  store ptr %0, ptr %3, align 8, !tbaa !3
  %5 = load ptr, ptr %3, align 8, !tbaa !3
  %6 = getelementptr inbounds nuw %struct.pysqlite_Blob, ptr %5, i32 0, i32 1
  %7 = load ptr, ptr %6, align 8, !tbaa !45
  %8 = call i32 @pysqlite_check_connection(ptr noundef %7)
  %9 = icmp ne i32 %8, 0
  br i1 %9, label %10, label %16

10:                                               ; preds = %1
  %11 = load ptr, ptr %3, align 8, !tbaa !3
  %12 = getelementptr inbounds nuw %struct.pysqlite_Blob, ptr %11, i32 0, i32 1
  %13 = load ptr, ptr %12, align 8, !tbaa !45
  %14 = call i32 @pysqlite_check_thread(ptr noundef %13)
  %15 = icmp ne i32 %14, 0
  br i1 %15, label %17, label %16

16:                                               ; preds = %10, %1
  store i32 0, ptr %2, align 4
  br label %32

17:                                               ; preds = %10
  %18 = load ptr, ptr %3, align 8, !tbaa !3
  %19 = getelementptr inbounds nuw %struct.pysqlite_Blob, ptr %18, i32 0, i32 2
  %20 = load ptr, ptr %19, align 8, !tbaa !25
  %21 = icmp eq ptr %20, null
  br i1 %21, label %22, label %31

22:                                               ; preds = %17
  call void @llvm.lifetime.start.p0(i64 8, ptr %4) #6
  %23 = load ptr, ptr %3, align 8, !tbaa !3
  %24 = getelementptr inbounds nuw %struct.pysqlite_Blob, ptr %23, i32 0, i32 1
  %25 = load ptr, ptr %24, align 8, !tbaa !45
  %26 = getelementptr inbounds nuw %struct.pysqlite_Connection, ptr %25, i32 0, i32 2
  %27 = load ptr, ptr %26, align 8, !tbaa !51
  store ptr %27, ptr %4, align 8, !tbaa !3
  %28 = load ptr, ptr %4, align 8, !tbaa !3
  %29 = getelementptr inbounds nuw %struct.pysqlite_state, ptr %28, i32 0, i32 8
  %30 = load ptr, ptr %29, align 8, !tbaa !52
  call void @PyErr_SetString(ptr noundef %30, ptr noundef @.str.11)
  store i32 0, ptr %2, align 4
  call void @llvm.lifetime.end.p0(i64 8, ptr %4) #6
  br label %32

31:                                               ; preds = %17
  store i32 1, ptr %2, align 4
  br label %32

32:                                               ; preds = %31, %22, %16
  %33 = load i32, ptr %2, align 4
  ret i32 %33
}

; Function Attrs: nounwind uwtable
define internal ptr @blob_read_impl(ptr noundef %0, i32 noundef %1) #0 {
  %3 = alloca ptr, align 8
  %4 = alloca ptr, align 8
  %5 = alloca i32, align 4
  %6 = alloca i32, align 4
  %7 = alloca i32, align 4
  %8 = alloca i32, align 4
  %9 = alloca ptr, align 8
  store ptr %0, ptr %4, align 8, !tbaa !3
  store i32 %1, ptr %5, align 4, !tbaa !44
  %10 = load ptr, ptr %4, align 8, !tbaa !3
  %11 = call i32 @check_blob(ptr noundef %10)
  %12 = icmp ne i32 %11, 0
  br i1 %12, label %14, label %13

13:                                               ; preds = %2
  store ptr null, ptr %3, align 8
  br label %58

14:                                               ; preds = %2
  call void @llvm.lifetime.start.p0(i64 4, ptr %6) #6
  %15 = load ptr, ptr %4, align 8, !tbaa !3
  %16 = getelementptr inbounds nuw %struct.pysqlite_Blob, ptr %15, i32 0, i32 2
  %17 = load ptr, ptr %16, align 8, !tbaa !25
  %18 = call i32 @sqlite3_blob_bytes(ptr noundef %17)
  store i32 %18, ptr %6, align 4, !tbaa !44
  call void @llvm.lifetime.start.p0(i64 4, ptr %7) #6
  %19 = load i32, ptr %6, align 4, !tbaa !44
  %20 = load ptr, ptr %4, align 8, !tbaa !3
  %21 = getelementptr inbounds nuw %struct.pysqlite_Blob, ptr %20, i32 0, i32 3
  %22 = load i32, ptr %21, align 8, !tbaa !53
  %23 = sub i32 %19, %22
  store i32 %23, ptr %7, align 4, !tbaa !44
  %24 = load i32, ptr %5, align 4, !tbaa !44
  %25 = icmp slt i32 %24, 0
  br i1 %25, label %30, label %26

26:                                               ; preds = %14
  %27 = load i32, ptr %5, align 4, !tbaa !44
  %28 = load i32, ptr %7, align 4, !tbaa !44
  %29 = icmp sgt i32 %27, %28
  br i1 %29, label %30, label %32

30:                                               ; preds = %26, %14
  %31 = load i32, ptr %7, align 4, !tbaa !44
  store i32 %31, ptr %5, align 4, !tbaa !44
  br label %32

32:                                               ; preds = %30, %26
  %33 = load i32, ptr %5, align 4, !tbaa !44
  %34 = icmp eq i32 %33, 0
  br i1 %34, label %35, label %37

35:                                               ; preds = %32
  %36 = call ptr @PyBytes_FromStringAndSize(ptr noundef null, i64 noundef 0)
  store ptr %36, ptr %3, align 8
  store i32 1, ptr %8, align 4
  br label %57

37:                                               ; preds = %32
  call void @llvm.lifetime.start.p0(i64 8, ptr %9) #6
  %38 = load ptr, ptr %4, align 8, !tbaa !3
  %39 = load i32, ptr %5, align 4, !tbaa !44
  %40 = sext i32 %39 to i64
  %41 = load ptr, ptr %4, align 8, !tbaa !3
  %42 = getelementptr inbounds nuw %struct.pysqlite_Blob, ptr %41, i32 0, i32 3
  %43 = load i32, ptr %42, align 8, !tbaa !53
  %44 = sext i32 %43 to i64
  %45 = call ptr @read_multiple(ptr noundef %38, i64 noundef %40, i64 noundef %44)
  store ptr %45, ptr %9, align 8, !tbaa !22
  %46 = load ptr, ptr %9, align 8, !tbaa !22
  %47 = icmp eq ptr %46, null
  br i1 %47, label %48, label %49

48:                                               ; preds = %37
  store ptr null, ptr %3, align 8
  store i32 1, ptr %8, align 4
  br label %56

49:                                               ; preds = %37
  %50 = load i32, ptr %5, align 4, !tbaa !44
  %51 = load ptr, ptr %4, align 8, !tbaa !3
  %52 = getelementptr inbounds nuw %struct.pysqlite_Blob, ptr %51, i32 0, i32 3
  %53 = load i32, ptr %52, align 8, !tbaa !53
  %54 = add i32 %53, %50
  store i32 %54, ptr %52, align 8, !tbaa !53
  %55 = load ptr, ptr %9, align 8, !tbaa !22
  store ptr %55, ptr %3, align 8
  store i32 1, ptr %8, align 4
  br label %56

56:                                               ; preds = %49, %48
  call void @llvm.lifetime.end.p0(i64 8, ptr %9) #6
  br label %57

57:                                               ; preds = %56, %35
  call void @llvm.lifetime.end.p0(i64 4, ptr %7) #6
  call void @llvm.lifetime.end.p0(i64 4, ptr %6) #6
  br label %58

58:                                               ; preds = %57, %13
  %59 = load ptr, ptr %3, align 8
  ret ptr %59
}

; Function Attrs: nounwind uwtable
define internal ptr @blob_read(ptr noundef %0, ptr noundef %1, i64 noundef %2) #0 {
  %4 = alloca ptr, align 8
  %5 = alloca ptr, align 8
  %6 = alloca i64, align 8
  %7 = alloca ptr, align 8
  %8 = alloca i32, align 4
  store ptr %0, ptr %4, align 8, !tbaa !22
  store ptr %1, ptr %5, align 8, !tbaa !47
  store i64 %2, ptr %6, align 8, !tbaa !7
  call void @llvm.lifetime.start.p0(i64 8, ptr %7) #6
  store ptr null, ptr %7, align 8, !tbaa !22
  call void @llvm.lifetime.start.p0(i64 4, ptr %8) #6
  store i32 -1, ptr %8, align 4, !tbaa !44
  %9 = load i64, ptr %6, align 8, !tbaa !7
  %10 = icmp sle i64 0, %9
  br i1 %10, label %11, label %14

11:                                               ; preds = %3
  %12 = load i64, ptr %6, align 8, !tbaa !7
  %13 = icmp sle i64 %12, 1
  br i1 %13, label %19, label %14

14:                                               ; preds = %11, %3
  %15 = load i64, ptr %6, align 8, !tbaa !7
  %16 = call i32 @_PyArg_CheckPositional(ptr noundef @.str.6, i64 noundef %15, i64 noundef 0, i64 noundef 1)
  %17 = icmp ne i32 %16, 0
  br i1 %17, label %19, label %18

18:                                               ; preds = %14
  br label %39

19:                                               ; preds = %14, %11
  %20 = load i64, ptr %6, align 8, !tbaa !7
  %21 = icmp slt i64 %20, 1
  br i1 %21, label %22, label %23

22:                                               ; preds = %19
  br label %35

23:                                               ; preds = %19
  %24 = load ptr, ptr %5, align 8, !tbaa !47
  %25 = getelementptr ptr, ptr %24, i64 0
  %26 = load ptr, ptr %25, align 8, !tbaa !22
  %27 = call i32 @PyLong_AsInt(ptr noundef %26)
  store i32 %27, ptr %8, align 4, !tbaa !44
  %28 = load i32, ptr %8, align 4, !tbaa !44
  %29 = icmp eq i32 %28, -1
  br i1 %29, label %30, label %34

30:                                               ; preds = %23
  %31 = call ptr @PyErr_Occurred()
  %32 = icmp ne ptr %31, null
  br i1 %32, label %33, label %34

33:                                               ; preds = %30
  br label %39

34:                                               ; preds = %30, %23
  br label %35

35:                                               ; preds = %34, %22
  %36 = load ptr, ptr %4, align 8, !tbaa !22
  %37 = load i32, ptr %8, align 4, !tbaa !44
  %38 = call ptr @blob_read_impl(ptr noundef %36, i32 noundef %37)
  store ptr %38, ptr %7, align 8, !tbaa !22
  br label %39

39:                                               ; preds = %35, %33, %18
  %40 = load ptr, ptr %7, align 8, !tbaa !22
  call void @llvm.lifetime.end.p0(i64 4, ptr %8) #6
  call void @llvm.lifetime.end.p0(i64 8, ptr %7) #6
  ret ptr %40
}