; Function Attrs: nounwind uwtable
define internal ptr @blob_read(ptr noundef captures(none) %0, ptr noundef readonly captures(none) %1, i64 noundef %2) #0 {
  %or.cond = icmp ult i64 %2, 2
  br i1 %or.cond, label %6, label %4

4:                                                ; preds = %3
  %5 = tail call i32 @_PyArg_CheckPositional(ptr noundef nonnull @.str.6, i64 noundef %2, i64 noundef 0, i64 noundef 1) #5
  %.not = icmp eq i32 %5, 0
  br i1 %.not, label %blob_read_impl.exit, label %6

6:                                                ; preds = %3, %4
  %7 = icmp slt i64 %2, 1
  br i1 %7, label %14, label %8

8:                                                ; preds = %6
  %9 = load ptr, ptr %1, align 8, !tbaa !21
  %10 = tail call i32 @PyLong_AsInt(ptr noundef %9) #5
  %11 = icmp eq i32 %10, -1
  br i1 %11, label %12, label %14

12:                                               ; preds = %8
  %13 = tail call ptr @PyErr_Occurred() #5
  %.not11 = icmp eq ptr %13, null
  br i1 %.not11, label %14, label %blob_read_impl.exit

14:                                               ; preds = %8, %12, %6
  %.0 = phi i32 [ -1, %6 ], [ -1, %12 ], [ %10, %8 ]
  %15 = getelementptr inbounds nuw i8, ptr %0, i64 16
  %16 = load ptr, ptr %15, align 8, !tbaa !39
  %17 = tail call i32 @pysqlite_check_connection(ptr noundef %16) #5
  %.not.i.i = icmp eq i32 %17, 0
  br i1 %.not.i.i, label %blob_read_impl.exit, label %18

18:                                               ; preds = %14
  %19 = load ptr, ptr %15, align 8, !tbaa !39
  %20 = tail call i32 @pysqlite_check_thread(ptr noundef %19) #5
  %.not5.i.i = icmp eq i32 %20, 0
  br i1 %.not5.i.i, label %blob_read_impl.exit, label %21

21:                                               ; preds = %18
  %22 = getelementptr inbounds nuw i8, ptr %0, i64 24
  %23 = load ptr, ptr %22, align 8, !tbaa !22
  %24 = icmp eq ptr %23, null
  br i1 %24, label %25, label %check_blob.exit.i

25:                                               ; preds = %21
  %26 = load ptr, ptr %15, align 8, !tbaa !39
  %27 = getelementptr inbounds nuw i8, ptr %26, i64 24
  %28 = load ptr, ptr %27, align 8, !tbaa !41
  %29 = getelementptr inbounds nuw i8, ptr %28, i64 64
  %30 = load ptr, ptr %29, align 8, !tbaa !42
  tail call void @PyErr_SetString(ptr noundef %30, ptr noundef nonnull @.str.11) #5
  br label %blob_read_impl.exit

check_blob.exit.i:                                ; preds = %21
  %31 = tail call i32 @sqlite3_blob_bytes(ptr noundef nonnull %23) #5
  %32 = getelementptr inbounds nuw i8, ptr %0, i64 32
  %33 = load i32, ptr %32, align 8, !tbaa !53
  %34 = sub i32 %31, %33
  %35 = icmp slt i32 %.0, 0
  %36 = tail call i32 @llvm.smin.i32(i32 %.0, i32 %34)
  %.016.i = select i1 %35, i32 %34, i32 %36
  %37 = icmp eq i32 %.016.i, 0
  br i1 %37, label %38, label %40

38:                                               ; preds = %check_blob.exit.i
  %39 = tail call ptr @PyBytes_FromStringAndSize(ptr noundef null, i64 noundef 0) #5
  br label %blob_read_impl.exit

40:                                               ; preds = %check_blob.exit.i
  %41 = sext i32 %.016.i to i64
  %42 = sext i32 %33 to i64
  %43 = tail call fastcc ptr @read_multiple(ptr noundef nonnull %0, i64 noundef %41, i64 noundef %42)
  %44 = icmp eq ptr %43, null
  br i1 %44, label %blob_read_impl.exit, label %45

45:                                               ; preds = %40
  %46 = load i32, ptr %32, align 8, !tbaa !53
  %47 = add i32 %46, %.016.i
  store i32 %47, ptr %32, align 8, !tbaa !53
  br label %blob_read_impl.exit

blob_read_impl.exit:                              ; preds = %45, %40, %38, %25, %18, %14, %12, %4
  %.09 = phi ptr [ null, %12 ], [ null, %4 ], [ %39, %38 ], [ %43, %45 ], [ null, %40 ], [ null, %25 ], [ null, %18 ], [ null, %14 ]
  ret ptr %.09
}